target datalayout = "e-m:e-p270:32:32-p271:32:32-p272:64:64-i64:64-i128:128-f80:128-n8:16:32:64-S128"
target triple = "x86_64-unknown-linux-gnu"

%struct.QemuTextConsole = type { %struct.QemuConsole, i32, i32, i32, i32, i32, i32, i32, i32, ptr, [2 x i32], [2 x i32], i32, i32, i32, i32, i32, i32, ptr, %struct.Fifo8 }
%struct.QemuConsole = type { %struct.Object, i32, ptr, ptr, %struct.DisplayScanout, i32, ptr, i32, ptr, i32, %struct.QemuUIInfo, ptr, ptr, ptr, %struct.CoQueue, %union.anon.0 }
%struct.Object = type { ptr, ptr, ptr, i32, ptr }
%struct.DisplayScanout = type { i32, %union.anon }
%union.anon = type { %struct.ScanoutTexture }
%struct.ScanoutTexture = type { i32, i8, i32, i32, i32, i32, i32, i32, ptr }
%struct.QemuUIInfo = type { i16, i16, i32, i32, i32, i32, i32 }
%struct.CoQueue = type { %struct.anon }
%struct.anon = type { ptr, ptr }
%union.anon.0 = type { %struct.QTailQLink }
%struct.QTailQLink = type { ptr, ptr }
%struct.Fifo8 = type { ptr, i32, i32, i32 }
%struct.Chardev = type { %struct.Object, %struct.QemuMutex, ptr, ptr, ptr, i32, i32, i8, ptr, ptr, [1 x i64] }
%struct.QemuMutex = type { %union.pthread_mutex_t, i8 }
%union.pthread_mutex_t = type { %struct.__pthread_mutex_s }
%struct.__pthread_mutex_s = type { i32, i32, i32, i32, i32, i16, i16, %struct.__pthread_internal_list }
%struct.__pthread_internal_list = type { ptr, ptr }
%struct.TextAttributes = type { i16 }
%struct.VCChardev = type { %struct.Chardev, ptr, i32, [3 x i32], i32, %struct.TextAttributes, i32, i32 }

@.str.1 = private unnamed_addr constant [11 x i8] c"chardev-vc\00", align 1
@.str.7 = private unnamed_addr constant [24 x i8] c"../qemu/ui/console-vc.c\00", align 1
@__func__.VC_CHARDEV = private unnamed_addr constant [11 x i8] c"VC_CHARDEV\00", align 1

; Function Attrs: nounwind sspstrong uwtable
define internal ptr @VC_CHARDEV(ptr noundef %obj) #0 {
entry:
  %obj.addr = alloca ptr, align 8
  store ptr %obj, ptr %obj.addr, align 8
  %0 = load ptr, ptr %obj.addr, align 8
  %call = call ptr @object_dynamic_cast_assert(ptr noundef %0, ptr noundef @.str.1, ptr noundef @.str.7, i32 noundef 852, ptr noundef @__func__.VC_CHARDEV)
  ret ptr %call
}

; Function Attrs: nounwind sspstrong uwtable
define internal void @vc_chr_set_echo(ptr noundef %chr, i1 noundef zeroext %echo) #0 {
entry:
  %chr.addr = alloca ptr, align 8
  %echo.addr = alloca i8, align 1
  %drv = alloca ptr, align 8
  store ptr %chr, ptr %chr.addr, align 8
  %frombool = zext i1 %echo to i8
  store i8 %frombool, ptr %echo.addr, align 1
  %0 = load ptr, ptr %chr.addr, align 8
  %call = call ptr @VC_CHARDEV(ptr noundef %0)
  store ptr %call, ptr %drv, align 8
  %1 = load i8, ptr %echo.addr, align 1
  %tobool = trunc i8 %1 to i1
  %conv = zext i1 %tobool to i32
  %2 = load ptr, ptr %drv, align 8
  %console = getelementptr inbounds %struct.VCChardev, ptr %2, i32 0, i32 1
  %3 = load ptr, ptr %console, align 8
  %echo1 = getelementptr inbounds %struct.QemuTextConsole, ptr %3, i32 0, i32 13
  store i32 %conv, ptr %echo1, align 4
  ret void
}