; Function Attrs: nounwind sspstrong uwtable
define internal void @vc_chr_set_echo(ptr noundef %chr, i1 noundef zeroext %echo) #0 {
entry:
  %call.i = tail call ptr @object_dynamic_cast_assert(ptr noundef %chr, ptr noundef nonnull @.str.1, ptr noundef nonnull @.str.7, i32 noundef 852, ptr noundef nonnull @__func__.VC_CHARDEV) #12
  %conv = zext i1 %echo to i32
  %console = getelementptr inbounds nuw i8, ptr %call.i, i64 152
  %0 = load ptr, ptr %console, align 8
  %echo1 = getelementptr inbounds nuw i8, ptr %0, i64 292
  store i32 %conv, ptr %echo1, align 4
  ret void
}